; Function Attrs: nounwind uwtable
define void @ossl_ml_kem_key_free(ptr noundef %0) local_unnamed_addr #0 {
  %2 = icmp eq ptr %0, null
  br i1 %2, label %43, label %3

3:                                                ; preds = %1
  %4 = getelementptr inbounds nuw i8, ptr %0, i64 16
  %5 = load ptr, ptr %4, align 8, !tbaa !21
  tail call void @EVP_MD_free(ptr noundef %5) #13
  %6 = getelementptr inbounds nuw i8, ptr %0, i64 24
  %7 = load ptr, ptr %6, align 8, !tbaa !22
  tail call void @EVP_MD_free(ptr noundef %7) #13
  %8 = getelementptr inbounds nuw i8, ptr %0, i64 32
  %9 = load ptr, ptr %8, align 8, !tbaa !23
  tail call void @EVP_MD_free(ptr noundef %9) #13
  %10 = getelementptr inbounds nuw i8, ptr %0, i64 40
  %11 = load ptr, ptr %10, align 8, !tbaa !24
  tail call void @EVP_MD_free(ptr noundef %11) #13
  %12 = getelementptr inbounds nuw i8, ptr %0, i64 176
  %13 = load ptr, ptr %12, align 8, !tbaa !25
  %.not = icmp eq ptr %13, null
  br i1 %.not, label %14, label %21

14:                                               ; preds = %3
  %15 = getelementptr inbounds nuw i8, ptr %0, i64 80
  %16 = load ptr, ptr %15, align 8, !tbaa !13
  %17 = icmp eq ptr %16, null
  br i1 %17, label %18, label %29

18:                                               ; preds = %14
  %19 = getelementptr inbounds nuw i8, ptr %0, i64 96
  %20 = load ptr, ptr %19, align 8, !tbaa !26
  %.not16 = icmp eq ptr %20, null
  br i1 %.not16, label %29, label %21

21:                                               ; preds = %18, %3
  %22 = getelementptr inbounds nuw i8, ptr %0, i64 112
  tail call void @OPENSSL_cleanse(ptr noundef nonnull %22, i64 noundef 64) #13
  %23 = load ptr, ptr %12, align 8, !tbaa !25
  %.not17 = icmp eq ptr %23, null
  br i1 %.not17, label %29, label %24

24:                                               ; preds = %21
  %25 = load ptr, ptr %0, align 8, !tbaa !14
  %26 = getelementptr inbounds nuw i8, ptr %25, i64 8
  %27 = load i64, ptr %26, align 8, !tbaa !27
  tail call void @OPENSSL_cleanse(ptr noundef nonnull %23, i64 noundef %27) #13
  %28 = load ptr, ptr %12, align 8, !tbaa !25
  tail call void @CRYPTO_free(ptr noundef %28, ptr noundef nonnull @.str, i32 noundef 1684) #13
  br label %29

29:                                               ; preds = %21, %24, %18, %14
  %30 = getelementptr inbounds nuw i8, ptr %0, i64 64
  %31 = load ptr, ptr %30, align 8, !tbaa !3
  %32 = icmp eq ptr %31, null
  br i1 %32, label %ossl_ml_kem_key_reset.exit, label %33

33:                                               ; preds = %29
  %34 = getelementptr inbounds nuw i8, ptr %0, i64 80
  %35 = load ptr, ptr %34, align 8, !tbaa !13
  %.not.i = icmp eq ptr %35, null
  br i1 %.not.i, label %41, label %36

36:                                               ; preds = %33
  %37 = load ptr, ptr %0, align 8, !tbaa !14
  %38 = getelementptr inbounds nuw i8, ptr %37, i64 48
  %39 = load i64, ptr %38, align 8, !tbaa !15
  %40 = add i64 %39, 64
  tail call void @OPENSSL_cleanse(ptr noundef nonnull %35, i64 noundef %40) #13
  %.pre.i = load ptr, ptr %30, align 8, !tbaa !3
  br label %41

41:                                               ; preds = %36, %33
  %42 = phi ptr [ %.pre.i, %36 ], [ %31, %33 ]
  tail call void @CRYPTO_free(ptr noundef %42, ptr noundef nonnull @.str, i32 noundef 1554) #13
  tail call void @llvm.memset.p0.i64(ptr noundef nonnull align 8 dereferenceable(40) %30, i8 0, i64 40, i1 false)
  br label %ossl_ml_kem_key_reset.exit

ossl_ml_kem_key_reset.exit:                       ; preds = %29, %41
  tail call void @CRYPTO_free(ptr noundef nonnull %0, ptr noundef nonnull @.str, i32 noundef 1688) #13
  br label %43

43:                                               ; preds = %1, %ossl_ml_kem_key_reset.exit
  ret void
}